target datalayout = "e-m:e-p270:32:32-p271:32:32-p272:64:64-i64:64-i128:128-f80:128-n8:16:32:64-S128"
target triple = "x86_64-pc-linux-gnu"

; Function Attrs: inlinehint nounwind uwtable
define internal i32 @sk_EVP_RAND_push(ptr noundef %0, ptr noundef %1) #3 {
  %3 = alloca ptr, align 8
  %4 = alloca ptr, align 8
  store ptr %0, ptr %3, align 8, !tbaa !23
  store ptr %1, ptr %4, align 8, !tbaa !53
  %5 = load ptr, ptr %3, align 8, !tbaa !23
  %6 = load ptr, ptr %4, align 8, !tbaa !53
  %7 = call i32 @OPENSSL_sk_push(ptr noundef %5, ptr noundef %6)
  ret i32 %7
}

; Function Attrs: nounwind uwtable
define internal void @collect_EVP_RAND(ptr noundef %0, ptr noundef %1) #0 {
  %3 = alloca ptr, align 8
  %4 = alloca ptr, align 8
  %5 = alloca ptr, align 8
  store ptr %0, ptr %3, align 8, !tbaa !53
  store ptr %1, ptr %4, align 8, !tbaa !74
  call void @llvm.lifetime.start.p0(i64 8, ptr %5) #6
  %6 = load ptr, ptr %4, align 8, !tbaa !74
  store ptr %6, ptr %5, align 8, !tbaa !23
  %7 = load ptr, ptr %5, align 8, !tbaa !23
  %8 = load ptr, ptr %3, align 8, !tbaa !53
  %9 = call i32 @sk_EVP_RAND_push(ptr noundef %7, ptr noundef %8)
  %10 = icmp sgt i32 %9, 0
  br i1 %10, label %11, label %14

11:                                               ; preds = %2
  %12 = load ptr, ptr %3, align 8, !tbaa !53
  %13 = call i32 @EVP_RAND_up_ref(ptr noundef %12)
  br label %14

14:                                               ; preds = %11, %2
  call void @llvm.lifetime.end.p0(i64 8, ptr %5) #6
  ret void
}